target datalayout = "e-m:e-p270:32:32-p271:32:32-p272:64:64-i64:64-i128:128-f80:128-n8:16:32:64-S128"
target triple = "x86_64-pc-linux-gnu"

%struct.rb_data_type_struct = type { ptr, %struct.anon, ptr, ptr, i64 }
%struct.anon = type { ptr, ptr, ptr, ptr, [1 x ptr] }
%struct.rb_stat = type { %struct.stat, i8 }
%struct.stat = type { i64, i64, i64, i32, i32, i32, i32, i64, i64, i64, i64, %struct.timespec, %struct.timespec, %struct.timespec, [3 x i64] }
%struct.timespec = type { i64, i64 }

@stat_data_type = internal constant %struct.rb_data_type_struct { ptr @.str.37, %struct.anon { ptr null, ptr inttoptr (i64 -1 to ptr), ptr null, ptr null, [1 x ptr] zeroinitializer }, ptr null, ptr null, i64 35 }, align 8
@rb_eTypeError = external global i64, align 8
@.str.147 = private unnamed_addr constant [25 x i8] c"uninitialized File::Stat\00", align 1

; Function Attrs: nounwind sspstrong uwtable
define internal { i64, i64 } @stat_mtimespec(ptr noundef %0) #0 {
  %2 = alloca %struct.timespec, align 8
  %3 = alloca ptr, align 8
  store ptr %0, ptr %3, align 8, !tbaa !22
  %4 = load ptr, ptr %3, align 8, !tbaa !22
  %5 = getelementptr inbounds nuw %struct.stat, ptr %4, i32 0, i32 12
  %6 = getelementptr inbounds nuw %struct.timespec, ptr %5, i32 0, i32 0
  %7 = load i64, ptr %6, align 8, !tbaa !219
  %8 = getelementptr inbounds nuw %struct.timespec, ptr %2, i32 0, i32 0
  store i64 %7, ptr %8, align 8, !tbaa !155
  %9 = load ptr, ptr %3, align 8, !tbaa !22
  %10 = getelementptr inbounds nuw %struct.stat, ptr %9, i32 0, i32 12
  %11 = getelementptr inbounds nuw %struct.timespec, ptr %10, i32 0, i32 1
  %12 = load i64, ptr %11, align 8, !tbaa !220
  %13 = getelementptr inbounds nuw %struct.timespec, ptr %2, i32 0, i32 1
  store i64 %12, ptr %13, align 8, !tbaa !156
  %14 = load { i64, i64 }, ptr %2, align 8
  ret { i64, i64 } %14
}

; Function Attrs: nounwind sspstrong uwtable
define internal ptr @get_stat(i64 noundef %0) #0 {
  %2 = alloca i64, align 8
  %3 = alloca ptr, align 8
  store i64 %0, ptr %2, align 8, !tbaa !7
  call void @llvm.lifetime.start.p0(i64 8, ptr %3) #24
  %4 = load i64, ptr %2, align 8, !tbaa !7
  %5 = call ptr @rb_check_typeddata(i64 noundef %4, ptr noundef @stat_data_type)
  store ptr %5, ptr %3, align 8, !tbaa !24
  %6 = load ptr, ptr %3, align 8, !tbaa !24
  %7 = getelementptr inbounds nuw %struct.rb_stat, ptr %6, i32 0, i32 1
  %8 = load i8, ptr %7, align 8, !tbaa !28, !range !164, !noundef !165
  %9 = trunc i8 %8 to i1
  br i1 %9, label %12, label %10

10:                                               ; preds = %1
  %11 = load i64, ptr @rb_eTypeError, align 8, !tbaa !7
  call void (i64, ptr, ...) @rb_raise(i64 noundef %11, ptr noundef @.str.147) #28
  unreachable

12:                                               ; preds = %1
  %13 = load ptr, ptr %3, align 8, !tbaa !24
  %14 = getelementptr inbounds nuw %struct.rb_stat, ptr %13, i32 0, i32 0
  call void @llvm.lifetime.end.p0(i64 8, ptr %3) #24
  ret ptr %14
}

; Function Attrs: nounwind sspstrong uwtable
define internal i64 @rb_stat_cmp(i64 noundef %0, i64 noundef %1) #0 {
  %3 = alloca i64, align 8
  %4 = alloca i64, align 8
  %5 = alloca i64, align 8
  %6 = alloca %struct.timespec, align 8
  %7 = alloca %struct.timespec, align 8
  %8 = alloca i32, align 4
  store i64 %0, ptr %4, align 8, !tbaa !7
  store i64 %1, ptr %5, align 8, !tbaa !7
  %9 = load i64, ptr %5, align 8, !tbaa !7
  %10 = load i64, ptr %4, align 8, !tbaa !7
  %11 = call i64 @rb_obj_class(i64 noundef %10)
  %12 = call i64 @rb_obj_is_kind_of(i64 noundef %9, i64 noundef %11)
  %13 = icmp ne i64 %12, 0
  br i1 %13, label %14, label %58

14:                                               ; preds = %2
  call void @llvm.lifetime.start.p0(i64 16, ptr %6) #24
  %15 = load i64, ptr %4, align 8, !tbaa !7
  %16 = call ptr @get_stat(i64 noundef %15)
  %17 = call { i64, i64 } @stat_mtimespec(ptr noundef %16)
  %18 = getelementptr inbounds nuw { i64, i64 }, ptr %6, i32 0, i32 0
  %19 = extractvalue { i64, i64 } %17, 0
  store i64 %19, ptr %18, align 8
  %20 = getelementptr inbounds nuw { i64, i64 }, ptr %6, i32 0, i32 1
  %21 = extractvalue { i64, i64 } %17, 1
  store i64 %21, ptr %20, align 8
  call void @llvm.lifetime.start.p0(i64 16, ptr %7) #24
  %22 = load i64, ptr %5, align 8, !tbaa !7
  %23 = call ptr @get_stat(i64 noundef %22)
  %24 = call { i64, i64 } @stat_mtimespec(ptr noundef %23)
  %25 = getelementptr inbounds nuw { i64, i64 }, ptr %7, i32 0, i32 0
  %26 = extractvalue { i64, i64 } %24, 0
  store i64 %26, ptr %25, align 8
  %27 = getelementptr inbounds nuw { i64, i64 }, ptr %7, i32 0, i32 1
  %28 = extractvalue { i64, i64 } %24, 1
  store i64 %28, ptr %27, align 8
  %29 = getelementptr inbounds nuw %struct.timespec, ptr %6, i32 0, i32 0
  %30 = load i64, ptr %29, align 8, !tbaa !155
  %31 = getelementptr inbounds nuw %struct.timespec, ptr %7, i32 0, i32 0
  %32 = load i64, ptr %31, align 8, !tbaa !155
  %33 = icmp eq i64 %30, %32
  br i1 %33, label %34, label %49

34:                                               ; preds = %14
  %35 = getelementptr inbounds nuw %struct.timespec, ptr %6, i32 0, i32 1
  %36 = load i64, ptr %35, align 8, !tbaa !156
  %37 = getelementptr inbounds nuw %struct.timespec, ptr %7, i32 0, i32 1
  %38 = load i64, ptr %37, align 8, !tbaa !156
  %39 = icmp eq i64 %36, %38
  br i1 %39, label %40, label %41

40:                                               ; preds = %34
  store i64 1, ptr %3, align 8
  store i32 1, ptr %8, align 4
  br label %57

41:                                               ; preds = %34
  %42 = getelementptr inbounds nuw %struct.timespec, ptr %6, i32 0, i32 1
  %43 = load i64, ptr %42, align 8, !tbaa !156
  %44 = getelementptr inbounds nuw %struct.timespec, ptr %7, i32 0, i32 1
  %45 = load i64, ptr %44, align 8, !tbaa !156
  %46 = icmp slt i64 %43, %45
  br i1 %46, label %47, label %48

47:                                               ; preds = %41
  store i64 -1, ptr %3, align 8
  store i32 1, ptr %8, align 4
  br label %57

48:                                               ; preds = %41
  store i64 3, ptr %3, align 8
  store i32 1, ptr %8, align 4
  br label %57

49:                                               ; preds = %14
  %50 = getelementptr inbounds nuw %struct.timespec, ptr %6, i32 0, i32 0
  %51 = load i64, ptr %50, align 8, !tbaa !155
  %52 = getelementptr inbounds nuw %struct.timespec, ptr %7, i32 0, i32 0
  %53 = load i64, ptr %52, align 8, !tbaa !155
  %54 = icmp slt i64 %51, %53
  br i1 %54, label %55, label %56

55:                                               ; preds = %49
  store i64 -1, ptr %3, align 8
  store i32 1, ptr %8, align 4
  br label %57

56:                                               ; preds = %49
  store i64 3, ptr %3, align 8
  store i32 1, ptr %8, align 4
  br label %57

57:                                               ; preds = %56, %55, %48, %47, %40
  call void @llvm.lifetime.end.p0(i64 16, ptr %7) #24
  call void @llvm.lifetime.end.p0(i64 16, ptr %6) #24
  br label %59

58:                                               ; preds = %2
  store i64 4, ptr %3, align 8
  br label %59

59:                                               ; preds = %58, %57
  %60 = load i64, ptr %3, align 8
  ret i64 %60
}