; Function Attrs: nounwind sspstrong uwtable
define internal range(i64 -1, 5) i64 @rb_stat_cmp(i64 noundef %0, i64 noundef %1) #0 {
  %3 = tail call i64 @rb_obj_class(i64 noundef %0) #22
  %4 = tail call i64 @rb_obj_is_kind_of(i64 noundef %1, i64 noundef %3) #22
  %.not = icmp eq i64 %4, 0
  br i1 %.not, label %29, label %5

5:                                                ; preds = %2
  %6 = tail call ptr @rb_check_typeddata(i64 noundef %0, ptr noundef nonnull @stat_data_type) #22
  %7 = getelementptr inbounds nuw i8, ptr %6, i64 144
  %8 = load i8, ptr %7, align 8, !tbaa !28, !range !278, !noundef !279
  %9 = trunc nuw i8 %8 to i1
  br i1 %9, label %get_stat.exit, label %10

10:                                               ; preds = %5
  %11 = load i64, ptr @rb_eTypeError, align 8, !tbaa !12
  tail call void (i64, ptr, ...) @rb_raise(i64 noundef %11, ptr noundef nonnull @.str.147) #24
  unreachable

get_stat.exit:                                    ; preds = %5
  %12 = getelementptr i8, ptr %6, i64 88
  %.val = load i64, ptr %12, align 8, !tbaa !219
  %13 = getelementptr i8, ptr %6, i64 96
  %.val16 = load i64, ptr %13, align 8, !tbaa !220
  %14 = tail call ptr @rb_check_typeddata(i64 noundef %1, ptr noundef nonnull @stat_data_type) #22
  %15 = getelementptr inbounds nuw i8, ptr %14, i64 144
  %16 = load i8, ptr %15, align 8, !tbaa !28, !range !278, !noundef !279
  %17 = trunc nuw i8 %16 to i1
  br i1 %17, label %get_stat.exit19, label %18

18:                                               ; preds = %get_stat.exit
  %19 = load i64, ptr @rb_eTypeError, align 8, !tbaa !12
  tail call void (i64, ptr, ...) @rb_raise(i64 noundef %19, ptr noundef nonnull @.str.147) #24
  unreachable

get_stat.exit19:                                  ; preds = %get_stat.exit
  %20 = getelementptr i8, ptr %14, i64 88
  %.val17 = load i64, ptr %20, align 8, !tbaa !219
  %21 = getelementptr i8, ptr %14, i64 96
  %.val18 = load i64, ptr %21, align 8, !tbaa !220
  %22 = icmp eq i64 %.val, %.val17
  br i1 %22, label %23, label %27

23:                                               ; preds = %get_stat.exit19
  %24 = icmp eq i64 %.val16, %.val18
  br i1 %24, label %29, label %25

25:                                               ; preds = %23
  %26 = icmp slt i64 %.val16, %.val18
  %. = select i1 %26, i64 -1, i64 3
  br label %29

27:                                               ; preds = %get_stat.exit19
  %28 = icmp slt i64 %.val, %.val17
  %.15 = select i1 %28, i64 -1, i64 3
  br label %29

29:                                               ; preds = %2, %23, %25, %27
  %.1 = phi i64 [ 1, %23 ], [ %., %25 ], [ %.15, %27 ], [ 4, %2 ]
  ret i64 %.1
}